Certificate:
    Data:
        Version: 3 (0x2)
        Serial Number: 20577 (0x5061)
    Signature Algorithm: sha1WithRSAEncryption
        Issuer: C=US, ST=TX, L=Dallas, O=Snakeoil Peddlers Inc., CN=xca.dfw.herle.net/emailAddress=certadmin@xca.dfw.herle.net
        Validity
            Not Before: Apr  2 01:49:41 2018 GMT
            Not After : Apr  2 01:49:41 2019 GMT
        Subject: C=US, ST=TX, L=Dallas, O=Snakeoil Peddlers Inc., CN=srv.dfw.herle.net/emailAddress=certadmin@srv.dfw.herle.net
        Subject Public Key Info:
            Public Key Algorithm: rsaEncryption
                Public-Key: (2048 bit)
                Modulus:
                    00:e9:6c:08:6f:ed:a1:05:68:0c:47:21:95:35:e3:
                    c0:5a:a8:b4:b8:01:c4:f1:01:53:1c:cd:58:3c:a2:
                    8d:92:15:cc:eb:7d:41:6b:0f:1b:85:c6:0c:98:70:
                    62:07:00:21:69:e8:15:38:a0:2b:4f:83:8e:48:7e:
                    ff:a1:02:0f:39:1e:5f:36:91:6c:d8:aa:2b:bb:72:
                    4b:86:36:2e:57:8f:b4:23:8c:81:b4:0f:6f:02:28:
                    52:88:96:e1:af:24:7e:1d:df:5c:53:cc:87:56:93:
                    7b:bc:0a:e6:85:69:79:75:97:89:d0:78:78:13:07:
                    e0:45:4d:b9:01:f0:46:85:07:10:c1:bb:05:de:84:
                    ec:0a:c2:36:0d:b3:3f:80:27:72:13:c0:eb:25:f5:
                    5a:cd:ba:3a:e2:6e:94:68:d5:ed:22:42:e2:6a:aa:
                    69:a0:6e:9b:28:b9:4d:e1:8a:f9:70:25:2a:7b:a6:
                    70:51:a0:79:2d:0a:89:2d:36:91:a2:b1:af:b5:99:
                    b2:75:ae:39:be:7b:f4:6d:26:07:d0:dc:17:a7:e2:
                    9d:f0:82:5d:67:50:f6:35:28:cc:bc:70:88:67:18:
                    37:f6:ec:48:db:76:f8:9c:8b:9f:38:6a:a5:10:a2:
                    cd:af:21:7f:fb:4d:eb:c5:2e:2c:10:e8:67:f7:5f:
                    05:3d
                Exponent: 65537 (0x10001)
        X509v3 extensions:
            Netscape Cert Type: 
                SSL Server
            X509v3 Extended Key Usage: 
                TLS Web Server Authentication
            X509v3 Key Usage: 
                Digital Signature, Non Repudiation, Key Encipherment, Data Encipherment, Key Agreement
            X509v3 Basic Constraints: 
                CA:FALSE
            Netscape Comment: 
                Certificate issued by Snakeoil CA
            X509v3 Subject Key Identifier: 
                00:92:07:6F:20:11:9A:35:B7:8A:4B:8C:50:2A:A3:63:83:E8:7D:34
            X509v3 Authority Key Identifier: 
                keyid:C5:5B:62:C8:16:61:B1:F0:A5:25:28:7E:DE:75:79:C4:6A:E2:CC:24

            X509v3 Subject Alternative Name: 
                email:certadmin@srv.dfw.herle.net, DNS:srv.dfw.herle.net
            X509v3 Issuer Alternative Name: 
                DirName:/C=US/ST=TX/L=Dallas/O=Snakeoil Peddlers Inc./CN=xca.dfw.herle.net.dfw.herle.net, email:certadmin@xca.dfw.herle.net
    Signature Algorithm: sha1WithRSAEncryption
         a8:4c:a2:0e:18:dd:c8:c7:0c:ca:88:c0:4a:db:9d:79:1e:3a:
         19:58:4b:b8:b0:74:a4:0a:00:d2:6b:d3:89:18:eb:29:90:32:
         a5:ac:90:d2:85:6c:26:e8:d9:c8:24:10:50:60:fc:b4:03:05:
         d2:b9:55:65:30:76:b3:0f:65:0e:84:0e:60:6c:88:2c:03:a4:
         ec:99:f6:2b:8e:ff:75:d5:58:91:9e:a1:3a:45:a1:ac:58:a2:
         f9:2c:10:90:d1:a3:e3:6d:ce:79:9f:4e:31:1c:9a:c9:30:13:
         2c:18:41:23:09:1c:d1:a4:11:02:d1:e5:8d:d4:c4:09:85:74:
         be:7f:e5:79:b2:d2:db:35:61:55:29:48:f0:96:96:8b:50:11:
         96:b3:b4:f7:48:c5:13:26:28:30:5e:fe:e5:04:86:cc:8a:9d:
         2d:f8:2b:e0:ed:cc:8a:18:43:29:d6:a5:3e:96:5b:14:00:33:
         c4:f5:3a:62:04:b9:60:85:7a:87:64:a7:e1:01:cd:e3:02:b4:
         5f:2e:a2:cb:51:e4:73:e3:e8:53:3c:4f:ea:cd:de:ce:a7:57:
         6b:3c:09:58:fe:f3:48:6f:4a:96:22:30:29:97:56:d9:40:78:
         d2:83:5b:a6:40:33:4c:a4:07:b8:10:eb:a0:bc:8f:cf:48:d5:
         60:e1:c9:1a
-----BEGIN CERTIFICATE-----
MIIFPjCCBCagAwIBAgICUGEwDQYJKoZIhvcNAQEFBQAwgZQxCzAJBgNVBAYTAlVT
MQswCQYDVQQIEwJUWDEPMA0GA1UEBxMGRGFsbGFzMR8wHQYDVQQKExZTbmFrZW9p
bCBQZWRkbGVycyBJbmMuMRowGAYDVQQDExF4Y2EuZGZ3LmhlcmxlLm5ldDEqMCgG
CSqGSIb3DQEJARYbY2VydGFkbWluQHhjYS5kZncuaGVybGUubmV0MB4XDTE4MDQw
MjAxNDk0MVoXDTE5MDQwMjAxNDk0MVowgZQxCzAJBgNVBAYTAlVTMQswCQYDVQQI
EwJUWDEPMA0GA1UEBxMGRGFsbGFzMR8wHQYDVQQKExZTbmFrZW9pbCBQZWRkbGVy
cyBJbmMuMRowGAYDVQQDExFzcnYuZGZ3LmhlcmxlLm5ldDEqMCgGCSqGSIb3DQEJ
ARYbY2VydGFkbWluQHNydi5kZncuaGVybGUubmV0MIIBIjANBgkqhkiG9w0BAQEF
AAOCAQ8AMIIBCgKCAQEA6WwIb+2hBWgMRyGVNePAWqi0uAHE8QFTHM1YPKKNkhXM
631Baw8bhcYMmHBiBwAhaegVOKArT4OOSH7/oQIPOR5fNpFs2Koru3JLhjYuV4+0
I4yBtA9vAihSiJbhryR+Hd9cU8yHVpN7vArmhWl5dZeJ0Hh4EwfgRU25AfBGhQcQ
wbsF3oTsCsI2DbM/gCdyE8DrJfVazbo64m6UaNXtIkLiaqppoG6bKLlN4Yr5cCUq
e6ZwUaB5LQqJLTaRorGvtZmyda45vnv0bSYH0NwXp+Kd8IJdZ1D2NSjMvHCIZxg3
9uxI23b4nIufOGqlEKLNryF/+03rxS4sEOhn918FPQIDAQABo4IBljCCAZIwEQYJ
YIZIAYb4QgEBBAQDAgZAMBMGA1UdJQQMMAoGCCsGAQUFBwMBMAsGA1UdDwQEAwID
+DAJBgNVHRMEAjAAMDAGCWCGSAGG+EIBDQQjFiFDZXJ0aWZpY2F0ZSBpc3N1ZWQg
YnkgU25ha2VvaWwgQ0EwHQYDVR0OBBYEFACSB28gEZo1t4pLjFAqo2OD6H00MB8G
A1UdIwQYMBaAFMVbYsgWYbHwpSUoft51ecRq4swkMDkGA1UdEQQyMDCBG2NlcnRh
ZG1pbkBzcnYuZGZ3LmhlcmxlLm5ldIIRc3J2LmRmdy5oZXJsZS5uZXQwgaIGA1Ud
EgSBmjCBl6R4MHYxCzAJBgNVBAYTAlVTMQswCQYDVQQIDAJUWDEPMA0GA1UEBwwG
RGFsbGFzMR8wHQYDVQQKDBZTbmFrZW9pbCBQZWRkbGVycyBJbmMuMSgwJgYDVQQD
DB94Y2EuZGZ3LmhlcmxlLm5ldC5kZncuaGVybGUubmV0gRtjZXJ0YWRtaW5AeGNh
LmRmdy5oZXJsZS5uZXQwDQYJKoZIhvcNAQEFBQADggEBAKhMog4Y3cjHDMqIwErb
nXkeOhlYS7iwdKQKANJr04kY6ymQMqWskNKFbCbo2cgkEFBg/LQDBdK5VWUwdrMP
ZQ6EDmBsiCwDpOyZ9iuO/3XVWJGeoTpFoaxYovksEJDRo+NtznmfTjEcmskwEywY
QSMJHNGkEQLR5Y3UxAmFdL5/5Xmy0ts1YVUpSPCWlotQEZaztPdIxRMmKDBe/uUE
hsyKnS34K+DtzIoYQynWpT6WWxQAM8T1OmIEuWCFeodkp+EBzeMCtF8uostR5HPj
6FM8T+rN3s6nV2s8CVj+80hvSpYiMCmXVtlAeNKDW6ZAM0ykB7gQ66C8j89I1WDh
yRo=
-----END CERTIFICATE-----
